; Function Attrs: mustprogress uwtable
define void @_ZNK7openvdb5v11_02io6Stream5writeERKSt6vectorISt10shared_ptrIKNS0_8GridBaseEESaIS7_EERKNS0_7MetaMapE(ptr noundef nonnull align 8 dereferenceable(80) %this, ptr noundef nonnull align 8 dereferenceable(24) %grids, ptr noundef nonnull align 8 dereferenceable(56) %metadata) unnamed_addr #5 align 2 personality ptr @__gxx_personality_v0 {
entry:
  %_openvdb_throw_msg = alloca %"class.std::__cxx11::basic_string", align 8
  %_openvdb_throw_os = alloca %"class.std::__cxx11::basic_ostringstream", align 8
  %ref.tmp = alloca %"class.std::__cxx11::basic_string", align 8
  %mImpl = getelementptr inbounds i8, ptr %this, i64 72
  %0 = load ptr, ptr %mImpl, align 8
  %mOutputStream = getelementptr inbounds i8, ptr %0, i64 32
  %1 = load ptr, ptr %mOutputStream, align 8
  %cmp = icmp eq ptr %1, null
  br i1 %cmp, label %if.then, label %if.end

if.then:                                          ; preds = %entry
  call void @_ZNSt7__cxx1112basic_stringIcSt11char_traitsIcESaIcEEC1Ev(ptr noundef nonnull align 8 dereferenceable(32) %_openvdb_throw_msg) #22
  invoke void @_ZNSt7__cxx1119basic_ostringstreamIcSt11char_traitsIcESaIcEEC1Ev(ptr noundef nonnull align 8 dereferenceable(112) %_openvdb_throw_os)
          to label %invoke.cont unwind label %lpad

invoke.cont:                                      ; preds = %if.then
  %call4 = invoke noundef nonnull align 8 dereferenceable(8) ptr @_ZStlsISt11char_traitsIcEERSt13basic_ostreamIcT_ES5_PKc(ptr noundef nonnull align 8 dereferenceable(8) %_openvdb_throw_os, ptr noundef nonnull @.str.9)
          to label %invoke.cont3 unwind label %lpad2

invoke.cont3:                                     ; preds = %invoke.cont
  invoke void @_ZNKSt7__cxx1119basic_ostringstreamIcSt11char_traitsIcESaIcEE3strEv(ptr nonnull sret(%"class.std::__cxx11::basic_string") align 8 %ref.tmp, ptr noundef nonnull align 8 dereferenceable(112) %_openvdb_throw_os)
          to label %invoke.cont5 unwind label %lpad2

invoke.cont5:                                     ; preds = %invoke.cont3
  %call6 = call noundef nonnull align 8 dereferenceable(32) ptr @_ZNSt7__cxx1112basic_stringIcSt11char_traitsIcESaIcEEaSEOS4_(ptr noundef nonnull align 8 dereferenceable(32) %_openvdb_throw_msg, ptr noundef nonnull align 8 dereferenceable(32) %ref.tmp) #22
  call void @_ZNSt7__cxx1112basic_stringIcSt11char_traitsIcESaIcEED1Ev(ptr noundef nonnull align 8 dereferenceable(32) %ref.tmp) #22
  call void @_ZNSt7__cxx1119basic_ostringstreamIcSt11char_traitsIcESaIcEED1Ev(ptr noundef nonnull align 8 dereferenceable(112) %_openvdb_throw_os) #22
  br label %try.cont

lpad:                                             ; preds = %if.then
  %2 = landingpad { ptr, i32 }
          catch ptr null
  br label %catch

lpad2:                                            ; preds = %invoke.cont3, %invoke.cont
  %3 = landingpad { ptr, i32 }
          catch ptr null
  call void @_ZNSt7__cxx1119basic_ostringstreamIcSt11char_traitsIcESaIcEED1Ev(ptr noundef nonnull align 8 dereferenceable(112) %_openvdb_throw_os) #22
  br label %catch

catch:                                            ; preds = %lpad2, %lpad
  %.pn = phi { ptr, i32 } [ %3, %lpad2 ], [ %2, %lpad ]
  %exn.slot.0 = extractvalue { ptr, i32 } %.pn, 0
  %4 = call ptr @__cxa_begin_catch(ptr %exn.slot.0) #22
  invoke void @__cxa_end_catch()
          to label %try.cont unwind label %lpad7

try.cont:                                         ; preds = %catch, %invoke.cont5
  %exception = call ptr @__cxa_allocate_exception(i64 40) #22
  call void @_ZN7openvdb5v11_09ExceptionC2EPKcPKNSt7__cxx1112basic_stringIcSt11char_traitsIcESaIcEEE(ptr noundef nonnull align 8 dereferenceable(40) %exception, ptr noundef nonnull @.str.16, ptr noundef nonnull %_openvdb_throw_msg) #22
  store ptr getelementptr inbounds ({ [5 x ptr] }, ptr @_ZTVN7openvdb5v11_010ValueErrorE, i64 0, i32 0, i64 2), ptr %exception, align 8
  invoke void @__cxa_throw(ptr nonnull %exception, ptr nonnull @_ZTIN7openvdb5v11_010ValueErrorE, ptr nonnull @_ZN7openvdb5v11_010ValueErrorD2Ev) #24
          to label %unreachable unwind label %lpad7

lpad7:                                            ; preds = %try.cont, %catch
  %5 = landingpad { ptr, i32 }
          cleanup
  call void @_ZNSt7__cxx1112basic_stringIcSt11char_traitsIcESaIcEED1Ev(ptr noundef nonnull align 8 dereferenceable(32) %_openvdb_throw_msg) #22
  resume { ptr, i32 } %5

if.end:                                           ; preds = %entry
  tail call void @_ZNK7openvdb5v11_02io7Archive5writeERSoRKSt6vectorISt10shared_ptrIKNS0_8GridBaseEESaIS8_EEbRKNS0_7MetaMapE(ptr noundef nonnull align 8 dereferenceable(65) %this, ptr noundef nonnull align 8 dereferenceable(8) %1, ptr noundef nonnull align 8 dereferenceable(24) %grids, i1 noundef zeroext false, ptr noundef nonnull align 8 dereferenceable(56) %metadata)
  ret void

unreachable:                                      ; preds = %try.cont
  unreachable
}